s:/C=AT/ST=Wien/O=Bundesministerium fuer Inneres/OU=IT-MS/CN=Portalverbund-CA/emailAddress=bmi-iv-2-e-ca@bmi.gv.at
i:/C=AT/ST=Wien/L=Wien/O=Bundesministerium fuer Inneres/OU=IT-MS/CN=PortalRoot-CA/emailAddress=bmi-iv-2-e-ca@bmi.gv.at
-----BEGIN CERTIFICATE-----
MIIFzDCCBLSgAwIBAgIBATANBgkqhkiG9w0BAQQFADCBpDELMAkGA1UEBhMCQVQx
DTALBgNVBAgTBFdpZW4xDTALBgNVBAcTBFdpZW4xJzAlBgNVBAoTHkJ1bmRlc21p
bmlzdGVyaXVtIGZ1ZXIgSW5uZXJlczEOMAwGA1UECxMFSVQtTVMxFjAUBgNVBAMT
DVBvcnRhbFJvb3QtQ0ExJjAkBgkqhkiG9w0BCQEWF2JtaS1pdi0yLWUtY2FAYm1p
Lmd2LmF0MB4XDTAyMTEwNTExMDQxM1oXDTE3MTExNjExMDQxM1owgZgxCzAJBgNV
BAYTAkFUMQ0wCwYDVQQIEwRXaWVuMScwJQYDVQQKEx5CdW5kZXNtaW5pc3Rlcml1
bSBmdWVyIElubmVyZXMxDjAMBgNVBAsTBUlULU1TMRkwFwYDVQQDExBQb3J0YWx2
ZXJidW5kLUNBMSYwJAYJKoZIhvcNAQkBFhdibWktaXYtMi1lLWNhQGJtaS5ndi5h
dDCCASIwDQYJKoZIhvcNAQEBBQADggEPADCCAQoCggEBAKOrfXE98SXJX4U3LfY6
+7S0YiV8hDwjRi33lQcX2Sn/r/dD6dUQv9vxkIjE3cZKqGYFJxb3Gn144r8N8tid
G1UAqkrpBkk48JuaQj75NQHZ8V/vHr3UayJtRmikGC/heWQVdOVfo9qVkAvX0uNW
aqX4S8xG71VV88yBdonz43sTm4LIqA1EWAWj6hndHaTs+dqQMmlC6tLl6lxOfXYQ
FIRXBrlpSMtAlUkbFSfgbttV7D2KW7ExScybAAWLdWH5nC6NM2JOabObOQnSwxQB
FIPbErR1SXu3cKZk4qkfqvUDHK0F9Z/TbKhAM7GmAOfFxfUMTqTsqQ9e2Pdo98Mj
Yp0CAwEAAaOCAhEwggINMB0GA1UdDgQWBBSmHvReGkO0iN6iyL1oZQPFMG9m0zCB
0QYDVR0jBIHJMIHGgBRR/3TX1bAeluhO7NUFpEHU2gUZ9KGBqqSBpzCBpDELMAkG
A1UEBhMCQVQxDTALBgNVBAgTBFdpZW4xDTALBgNVBAcTBFdpZW4xJzAlBgNVBAoT
HkJ1bmRlc21pbmlzdGVyaXVtIGZ1ZXIgSW5uZXJlczEOMAwGA1UECxMFSVQtTVMx
FjAUBgNVBAMTDVBvcnRhbFJvb3QtQ0ExJjAkBgkqhkiG9w0BCQEWF2JtaS1pdi0y
LWUtY2FAYm1pLmd2LmF0ggEAMBIGA1UdEwEB/wQIMAYBAf8CAQAwDgYDVR0PAQH/
BAQDAgEGMBEGCWCGSAGG+EIBAQQEAwICBDAiBgNVHREEGzAZgRdibWktaXYtMi1l
LWNhQGJtaS5ndi5hdDAiBgNVHRIEGzAZgRdibWktaXYtMi1lLWNhQGJtaS5ndi5h
dDBIBgNVHR8EQTA/MD2gO6A5hjdodHRwOi8vcG9ydGFsLmJtaS5ndi5hdC9yZWYv
cGtpL3BvcnRhbENBL1BvcnRhbFJvb3QuY3JsME8GCCsGAQUFBwEBBEMwQTA/Bggr
BgEFBQcwAoYzaHR0cDovL3BvcnRhbC5ibWkuZ3YuYXQvcmVmL3BraS9wb3J0YWxD
QS9pbmRleC5odG1sMA0GCSqGSIb3DQEBBAUAA4IBAQBzBgDuzd25VZN99I9q2zI1
dR46hj5UQXVQSmKJ5pdtqgG8nXecnm2DkgQ+g14nHmWhcrUAeQ3LEocBppDArytq
X6RGhB6DCzqZivlIOqeptcl2DTm4Z6mlSP9+PqUGPbEoQ0L3z71zM92Y/A9RbOLN
SoQq0YrAI+8yEQN8GF8ZiVLsUjujynMxK0UGfeKCEMPX9FlsPb8G0EqA4js5R9Ix
wQpwBn/LvuAaG+r1WLAUK/tKy64q4VwK7taglhSPLqKh9jmDyEAQBeZtI0glQdue
2fpucqzy9AOCK+N02mAFI40rtxstivH7itnogt4Q9gv78HLy4LhtmzynYmJ2XztC
-----END CERTIFICATE-----

Certificate:
    Data:
        Version: 3 (0x2)
        Serial Number: 1 (0x1)
    Signature Algorithm: md5WithRSAEncryption
        Issuer: C=AT, ST=Wien, L=Wien, O=Bundesministerium fuer Inneres, OU=IT-MS, CN=PortalRoot-CA/emailAddress=bmi-iv-2-e-ca@bmi.gv.at
        Validity
            Not Before: Nov  5 11:04:13 2002 GMT
            Not After : Nov 16 11:04:13 2017 GMT
        Subject: C=AT, ST=Wien, O=Bundesministerium fuer Inneres, OU=IT-MS, CN=Portalverbund-CA/emailAddress=bmi-iv-2-e-ca@bmi.gv.at
        Subject Public Key Info:
            Public Key Algorithm: rsaEncryption
                Public-Key: (2048 bit)
                Modulus:
                    00:a3:ab:7d:71:3d:f1:25:c9:5f:85:37:2d:f6:3a:
                    fb:b4:b4:62:25:7c:84:3c:23:46:2d:f7:95:07:17:
                    d9:29:ff:af:f7:43:e9:d5:10:bf:db:f1:90:88:c4:
                    dd:c6:4a:a8:66:05:27:16:f7:1a:7d:78:e2:bf:0d:
                    f2:d8:9d:1b:55:00:aa:4a:e9:06:49:38:f0:9b:9a:
                    42:3e:f9:35:01:d9:f1:5f:ef:1e:bd:d4:6b:22:6d:
                    46:68:a4:18:2f:e1:79:64:15:74:e5:5f:a3:da:95:
                    90:0b:d7:d2:e3:56:6a:a5:f8:4b:cc:46:ef:55:55:
                    f3:cc:81:76:89:f3:e3:7b:13:9b:82:c8:a8:0d:44:
                    58:05:a3:ea:19:dd:1d:a4:ec:f9:da:90:32:69:42:
                    ea:d2:e5:ea:5c:4e:7d:76:10:14:84:57:06:b9:69:
                    48:cb:40:95:49:1b:15:27:e0:6e:db:55:ec:3d:8a:
                    5b:b1:31:49:cc:9b:00:05:8b:75:61:f9:9c:2e:8d:
                    33:62:4e:69:b3:9b:39:09:d2:c3:14:01:14:83:db:
                    12:b4:75:49:7b:b7:70:a6:64:e2:a9:1f:aa:f5:03:
                    1c:ad:05:f5:9f:d3:6c:a8:40:33:b1:a6:00:e7:c5:
                    c5:f5:0c:4e:a4:ec:a9:0f:5e:d8:f7:68:f7:c3:23:
                    62:9d
                Exponent: 65537 (0x10001)
        X509v3 extensions:
            X509v3 Subject Key Identifier: 
                A6:1E:F4:5E:1A:43:B4:88:DE:A2:C8:BD:68:65:03:C5:30:6F:66:D3
            X509v3 Authority Key Identifier: 
                keyid:51:FF:74:D7:D5:B0:1E:96:E8:4E:EC:D5:05:A4:41:D4:DA:05:19:F4
                DirName:/C=AT/ST=Wien/L=Wien/O=Bundesministerium fuer Inneres/OU=IT-MS/CN=PortalRoot-CA/emailAddress=bmi-iv-2-e-ca@bmi.gv.at
                serial:00

            X509v3 Basic Constraints: critical
                CA:TRUE, pathlen:0
            X509v3 Key Usage: critical
                Certificate Sign, CRL Sign
            Netscape Cert Type: 
                SSL CA
            X509v3 Subject Alternative Name: 
                email:bmi-iv-2-e-ca@bmi.gv.at
            X509v3 Issuer Alternative Name: 
                email:bmi-iv-2-e-ca@bmi.gv.at
            X509v3 CRL Distribution Points: 

                Full Name:
                  URI:http://portal.bmi.gv.at/ref/pki/portalCA/PortalRoot.crl

            Authority Information Access: 
                CA Issuers - URI:http://portal.bmi.gv.at/ref/pki/portalCA/index.html

    Signature Algorithm: md5WithRSAEncryption
         73:06:00:ee:cd:dd:b9:55:93:7d:f4:8f:6a:db:32:35:75:1e:
         3a:86:3e:54:41:75:50:4a:62:89:e6:97:6d:aa:01:bc:9d:77:
         9c:9e:6d:83:92:04:3e:83:5e:27:1e:65:a1:72:b5:00:79:0d:
         cb:12:87:01:a6:90:c0:af:2b:6a:5f:a4:46:84:1e:83:0b:3a:
         99:8a:f9:48:3a:a7:a9:b5:c9:76:0d:39:b8:67:a9:a5:48:ff:
         7e:3e:a5:06:3d:b1:28:43:42:f7:cf:bd:73:33:dd:98:fc:0f:
         51:6c:e2:cd:4a:84:2a:d1:8a:c0:23:ef:32:11:03:7c:18:5f:
         19:89:52:ec:52:3b:a3:ca:73:31:2b:45:06:7d:e2:82:10:c3:
         d7:f4:59:6c:3d:bf:06:d0:4a:80:e2:3b:39:47:d2:31:c1:0a:
         70:06:7f:cb:be:e0:1a:1b:ea:f5:58:b0:14:2b:fb:4a:cb:ae:
         2a:e1:5c:0a:ee:d6:a0:96:14:8f:2e:a2:a1:f6:39:83:c8:40:
         10:05:e6:6d:23:48:25:41:db:9e:d9:fa:6e:72:ac:f2:f4:03:
         82:2b:e3:74:da:60:05:23:8d:2b:b7:1b:2d:8a:f1:fb:8a:d9:
         e8:82:de:10:f6:0b:fb:f0:72:f2:e0:b8:6d:9b:3c:a7:62:62:
         76:5f:3b:42
