
Certificate:
   Data:
       Version: 3 (0x2)
       Serial Number: 234 (0xea)
       Signature Algorithm: sha1WithRSAEncryption
       Issuer: C=AT, ST=Wien, O=Bundesministerium fuer Inneres, OU=IT-MS, CN=Portalverbund-CA/Email=bmi-iv-2-e-ca@bmi.gv.at
       Validity
           Not Before: Jul  9 14:57:30 2009 GMT
           Not After : Jul 29 14:57:30 2011 GMT
       Subject: C=AT, ST=Wien, O=Magistrat der Stadt Wien, OU=MA 14, CN=gondor.magwien.gv.at/Email=cctprod-l@adv.magwien.gv.at
       Subject Public Key Info:
           Public Key Algorithm: rsaEncryption
           RSA Public Key: (1024 bit)
               Modulus (1024 bit):
                   00:c1:53:9c:a9:a9:2c:63:3a:ab:90:e4:b2:58:8f:
                   59:6e:08:76:99:1a:5d:3c:6a:08:be:ef:01:63:bf:
                   a0:a5:88:95:33:41:27:7c:51:9f:e4:98:39:19:26:
                   95:85:59:be:c7:a3:d6:f9:55:ca:93:8c:e0:33:9e:
                   95:98:81:8e:46:16:55:b1:35:26:2a:98:d8:b8:0f:
                   92:ec:c0:84:94:b1:19:6c:be:f3:ca:23:89:aa:c5:
                   d8:10:6d:2d:8f:b0:55:d2:60:50:2e:c2:17:e6:6a:
                   be:85:5c:c5:36:22:7c:45:21:a0:83:4f:3d:5d:6d:
                   20:44:3c:83:9c:04:5f:1c:ad
               Exponent: 65537 (0x10001)
       X509v3 extensions:
           X509v3 Basic Constraints: 
               CA:FALSE
           X509v3 Key Usage: 
               Digital Signature, Non Repudiation, Key Encipherment
           Netscape Comment: 
               OpenSSL Generated Certificate
           X509v3 Subject Key Identifier: 
               B0:0A:44:9E:9B:BE:7C:06:61:21:19:38:E2:34:4B:79:72:70:F4:F5
           X509v3 Authority Key Identifier: 
               keyid:A6:1E:F4:5E:1A:43:B4:88:DE:A2:C8:BD:68:65:03:C5:30:6F:66:D3
               DirName:/C=AT/ST=Wien/L=Wien/O=Bundesministerium fuer Inneres/OU=IT-MS/CN=PortalRoot-CA/Email=bmi-iv-2-e-ca@bmi.gv.at
               serial:01

           X509v3 Subject Alternative Name: 
               email:cctprod-l@adv.magwien.gv.at
           X509v3 Issuer Alternative Name: 
               email:bmi-iv-2-e-ca@bmi.gv.at
           X509v3 CRL Distribution Points: 
               URI:http://portal.bmi.gv.at/ref/pki/portalCA/PortalV.crl

           Authority Information Access: 
               CA Issuers - URI:http://portal.bmi.gv.at/ref/pki/portalCA/index.html

           Behoerdenkennzeichen: 
               ...
   Signature Algorithm: sha1WithRSAEncryption
       3a:a5:ea:b7:5c:87:eb:b2:0d:d3:2e:cd:79:50:3b:ef:cd:07:
       37:8b:c1:87:c4:55:4c:da:fa:2d:e8:d0:32:b0:bd:59:66:4b:
       93:ef:8b:1f:25:9c:12:52:90:25:fb:4f:62:cc:1e:be:66:40:
       6a:81:95:32:36:aa:26:a7:48:97:a8:4b:b0:9d:0c:7b:1f:ae:
       f0:30:ba:09:4f:2a:96:d3:37:37:b1:f0:23:02:bd:cc:6d:02:
       c6:01:e7:ce:01:1e:c5:a9:95:91:36:ff:67:88:a7:43:c0:f7:
       1d:d4:29:be:53:e7:30:56:95:68:01:c0:ea:e9:60:a6:51:39:
       68:12:4e:6c:84:92:e7:a6:71:b9:88:9b:ca:5b:89:58:8f:d8:
       ff:23:c5:0d:f8:0a:7a:ee:6a:a6:0c:80:bd:a6:fe:f7:6a:30:
       1a:1b:02:fc:82:e3:a7:88:7c:b1:6f:f4:17:44:72:b8:9b:2d:
       0f:8e:53:b6:62:51:85:4a:62:37:98:f2:a0:1d:62:c5:73:97:
       03:a0:4c:1e:7f:6f:3b:73:06:e1:a2:5f:b1:5a:fe:09:35:ac:
       3a:61:b7:4e:c1:f6:7d:0b:8a:00:13:3f:af:e3:50:b7:e8:89:
       16:97:f5:59:4e:ae:e6:5d:15:63:b9:19:7f:07:52:44:d4:f4:
       d5:de:3f:a4
-----BEGIN CERTIFICATE-----
MIIFXzCCBEegAwIBAgICAOowDQYJKoZIhvcNAQEFBQAwgZgxCzAJBgNVBAYTAkFU
MQ0wCwYDVQQIEwRXaWVuMScwJQYDVQQKEx5CdW5kZXNtaW5pc3Rlcml1bSBmdWVy
IElubmVyZXMxDjAMBgNVBAsTBUlULU1TMRkwFwYDVQQDExBQb3J0YWx2ZXJidW5k
LUNBMSYwJAYJKoZIhvcNAQkBFhdibWktaXYtMi1lLWNhQGJtaS5ndi5hdDAeFw0w
OTA3MDkxNDU3MzBaFw0xMTA3MjkxNDU3MzBaMIGaMQswCQYDVQQGEwJBVDENMAsG
A1UECBMEV2llbjEhMB8GA1UEChMYTWFnaXN0cmF0IGRlciBTdGFkdCBXaWVuMQ4w
DAYDVQQLEwVNQSAxNDEdMBsGA1UEAxMUZ29uZG9yLm1hZ3dpZW4uZ3YuYXQxKjAo
BgkqhkiG9w0BCQEWG2NjdHByb2QtbEBhZHYubWFnd2llbi5ndi5hdDCBnzANBgkq
hkiG9w0BAQEFAAOBjQAwgYkCgYEAwVOcqaksYzqrkOSyWI9Zbgh2mRpdPGoIvu8B
Y7+gpYiVM0EnfFGf5Jg5GSaVhVm+x6PW+VXKk4zgM56VmIGORhZVsTUmKpjYuA+S
7MCElLEZbL7zyiOJqsXYEG0tj7BV0mBQLsIX5mq+hVzFNiJ8RSGgg089XW0gRDyD
nARfHK0CAwEAAaOCAjEwggItMAkGA1UdEwQCMAAwCwYDVR0PBAQDAgXgMCwGCWCG
SAGG+EIBDQQfFh1PcGVuU1NMIEdlbmVyYXRlZCBDZXJ0aWZpY2F0ZTAdBgNVHQ4E
FgQUsApEnpu+fAZhIRk44jRLeXJw9PUwgdEGA1UdIwSByTCBxoAUph70XhpDtIje
osi9aGUDxTBvZtOhgaqkgacwgaQxCzAJBgNVBAYTAkFUMQ0wCwYDVQQIEwRXaWVu
MQ0wCwYDVQQHEwRXaWVuMScwJQYDVQQKEx5CdW5kZXNtaW5pc3Rlcml1bSBmdWVy
IElubmVyZXMxDjAMBgNVBAsTBUlULU1TMRYwFAYDVQQDEw1Qb3J0YWxSb290LUNB
MSYwJAYJKoZIhvcNAQkBFhdibWktaXYtMi1lLWNhQGJtaS5ndi5hdIIBATAmBgNV
HREEHzAdgRtjY3Rwcm9kLWxAYWR2Lm1hZ3dpZW4uZ3YuYXQwIgYDVR0SBBswGYEX
Ym1pLWl2LTItZS1jYUBibWkuZ3YuYXQwRQYDVR0fBD4wPDA6oDigNoY0aHR0cDov
L3BvcnRhbC5ibWkuZ3YuYXQvcmVmL3BraS9wb3J0YWxDQS9Qb3J0YWxWLmNybDBP
BggrBgEFBQcBAQRDMEEwPwYIKwYBBQUHMAKGM2h0dHA6Ly9wb3J0YWwuYm1pLmd2
LmF0L3JlZi9wa2kvcG9ydGFsQ0EvaW5kZXguaHRtbDAOBgcqKAAKAQEBBAMBAf8w
DQYJKoZIhvcNAQEFBQADggEBADql6rdch+uyDdMuzXlQO+/NBzeLwYfEVUza+i3o
0DKwvVlmS5Pvix8lnBJSkCX7T2LMHr5mQGqBlTI2qianSJeoS7CdDHsfrvAwuglP
KpbTNzex8CMCvcxtAsYB584BHsWplZE2/2eIp0PA9x3UKb5T5zBWlWgBwOrpYKZR
OWgSTmyEkuemcbmIm8pbiViP2P8jxQ34CnruaqYMgL2m/vdqMBobAvyC46eIfLFv
9BdEcribLQ+OU7ZiUYVKYjeY8qAdYsVzlwOgTB5/bztzBuGiX7Fa/gk1rDpht07B
9n0LigATP6/jULfoiRaX9VlOruZdFWO5GX8HUkTU9NXeP6Q=
-----END CERTIFICATE-----